ccollections
OrderedDict
p1
((lp2
(lp3
S'14\xe5\x8f\xb7\xe7\xba\xbf\xef\xbc\x88\xe8\xa5\xbf\xe6\xae\xb5\xef\xbc\x89'
p4
aS'689'
p5
aa(lp6
S'\xe5\xbf\xab\xe9\x80\x9f\xe5\x85\xac\xe4\xba\xa44\xe7\xba\xbf'
p7
aS'431'
p8
aa(lp9
S'\xe5\xbf\xab\xe9\x80\x9f\xe5\x85\xac\xe4\xba\xa43\xe7\xba\xbf'
p10
aS'569'
p11
aa(lp12
S'\xe5\xbf\xab\xe9\x80\x9f\xe5\x85\xac\xe4\xba\xa42\xe7\xba\xbf'
p13
aS'490'
p14
aa(lp15
S'\xe8\xbf\x90\xe9\x80\x9a119'
p16
aS'3'
aa(lp17
S'\xe8\xbf\x90\xe9\x80\x9a118'
p18
aS'5'
aa(lp19
S'\xe6\x88\xbf\xe5\xb1\xb1\xe7\xba\xbf'
p20
aS'31'
p21
aa(lp22
S'\xe5\x85\xab\xe9\x80\x9a\xe7\xba\xbf'
p23
aS'102'
p24
aa(lp25
S'\xe8\xbf\x90\xe9\x80\x9a111'
p26
aS'114'
p27
aa(lp28
S'\xe8\xbf\x90\xe9\x80\x9a110'
p29
aS'115'
p30
aa(lp31
S'\xe8\xbf\x90\xe9\x80\x9a117'
p32
aS'116'
p33
aa(lp34
S'\xe8\xbf\x90\xe9\x80\x9a116'
p35
aS'117'
p36
aa(lp37
S'\xe8\xbf\x90\xe9\x80\x9a115'
p38
aS'118'
p39
aa(lp40
S'\xe8\xbf\x90\xe9\x80\x9a114'
p41
aS'119'
p42
aa(lp43
S'\xe6\x9c\xba\xe5\x9c\xba\xe7\xba\xbf'
p44
aS'540'
p45
aa(lp46
S'\xe8\xbf\x90\xe9\x80\x9a205'
p47
aS'202'
p48
aa(lp49
S'\xe8\xbf\x90\xe9\x80\x9a202'
p50
aS'203'
p51
aa(lp52
S'\xe8\xbf\x90\xe9\x80\x9a201'
p53
aS'204'
p54
aa(lp55
S'\xe4\xba\xa6\xe5\xba\x84\xe7\xba\xbf'
p56
aS'293'
p57
aa(lp58
S'\xe8\xbf\x90\xe9\x80\x9a104'
p59
aS'314'
p60
aa(lp61
S'\xe8\xbf\x90\xe9\x80\x9a105'
p62
aS'315'
p63
aa(lp64
S'\xe8\xbf\x90\xe9\x80\x9a106'
p65
aS'316'
p66
aa(lp67
S'\xe8\xbf\x90\xe9\x80\x9a107'
p68
aS'317'
p69
aa(lp70
S'\xe8\xbf\x90\xe9\x80\x9a101'
p71
aS'318'
p72
aa(lp73
S'\xe8\xbf\x90\xe9\x80\x9a102'
p74
aS'319'
p75
aa(lp76
S'\xe8\xbf\x90\xe9\x80\x9a103'
p77
aS'320'
p78
aa(lp79
S'\xe8\xbf\x90\xe9\x80\x9a108'
p80
aS'321'
p81
aa(lp82
S'\xe8\xbf\x90\xe9\x80\x9a109'
p83
aS'322'
p84
aa(lp85
S'\xe5\xa4\xa7\xe5\x85\xb4\xe7\xba\xbf'
p86
aS'347'
p87
aa(lp88
S'\xe6\x98\x8c\xe5\xb9\xb3\xe7\xba\xbf'
p89
aS'571'
p90
aa(lp91
S'\xe8\xbf\x90\xe9\x80\x9a124'
p92
aS'670'
p93
aa(lp94
S'\xe8\xbf\x90\xe9\x80\x9a122'
p95
aS'671'
p96
aa(lp97
S'\xe8\xbf\x90\xe9\x80\x9a123'
p98
aS'672'
p99
aa(lp100
S'\xe8\xbf\x90\xe9\x80\x9a120'
p101
aS'673'
p102
aa(lp103
S'\xe8\xbf\x90\xe9\x80\x9a121'
p104
aS'674'
p105
aa(lp106
S'\xe8\xbf\x90\xe9\x80\x9a113'
p107
aS'733'
p108
aa(lp109
S'\xe8\xbf\x90\xe9\x80\x9a112'
p110
aS'735'
p111
aa(lp112
S'13\xe5\x8f\xb7\xe7\xba\xbf'
p113
aS'168'
p114
aa(lp115
S'15\xe5\x8f\xb7\xe7\xba\xbf'
p116
aS'349'
p117
aa(lp118
S'\xe7\x89\xb912\xe5\xa4\x96'
p119
aS'472'
p120
aa(lp121
S'\xe5\xa4\x9c30\xe5\x86\x85'
p122
aS'525'
p123
aa(lp124
S'10\xe5\x8f\xb7\xe7\xba\xbf'
p125
aS'628'
p126
aa(lp127
S'1\xe5\x8f\xb7\xe7\xba\xbf'
p128
aS'504'
p129
aa(lp130
S'\xe7\x89\xb98\xe5\xa4\x96'
p131
aS'80'
p132
aa(lp133
S'5\xe5\x8f\xb7\xe7\xba\xbf'
p134
aS'111'
p135
aa(lp136
S'7\xe5\x8f\xb7\xe7\xba\xbf'
p137
aS'436'
p138
aa(lp139
S'2\xe5\x8f\xb7\xe7\xba\xbf'
p140
aS'495'
p141
aa(lp142
S'6\xe5\x8f\xb7\xe7\xba\xbf'
p143
aS'530'
p144
aa(lp145
S'\xe7\x89\xb98\xe5\x86\x85'
p146
aS'543'
p147
aa(lp148
S'9\xe5\x8f\xb7\xe7\xba\xbf'
p149
aS'573'
p150
aa(lp151
S'8\xe5\x8f\xb7\xe7\xba\xbf'
p152
aS'669'
p153
aa(lp154
S'4\xe5\x8f\xb7\xe7\xba\xbf'
p155
aS'397'
p156
aa(lp157
S'344\xe5\xbf\xab'
p158
aS'52'
p159
aa(lp160
S'399\xe5\xa4\x96'
p161
aS'58'
p162
aa(lp163
S'850\xe5\xbf\xab'
p164
aS'128'
p165
aa(lp166
S'366\xe5\xbf\xab'
p167
aS'149'
p168
aa(lp169
S'\xe4\xb8\x93121'
p170
aS'150'
p171
aa(lp172
S'942\xe5\xbf\xab'
p173
aS'159'
p174
aa(lp175
S'300\xe5\xa4\x96'
p176
aS'184'
p177
aa(lp178
S'360\xe5\xbf\xab'
p179
aS'210'
p180
aa(lp181
S'740\xe5\xa4\x96'
p182
aS'307'
p183
aa(lp184
S'970\xe5\xbf\xab'
p185
aS'454'
p186
aa(lp187
S'935\xe5\xbf\xab'
p188
aS'346'
p189
aa(lp190
S'901\xe5\xbf\xab'
p191
aS'438'
p192
aa(lp193
S'835\xe5\xbf\xab'
p194
aS'451'
p195
aa(lp196
S'345\xe5\xbf\xab'
p197
aS'498'
p198
aa(lp199
S'631\xe5\xbf\xab'
p200
aS'510'
p201
aa(lp202
S'\xe4\xb8\x93108'
p203
aS'511'
p204
aa(lp205
S'\xe4\xb8\x93109'
p206
aS'512'
p207
aa(lp208
S'\xe4\xb8\x93102'
p209
aS'514'
p210
aa(lp211
S'\xe4\xb8\x93101'
p212
aS'515'
p213
aa(lp214
S'\xe4\xb8\x93107'
p215
aS'516'
p216
aa(lp217
S'\xe4\xb8\x93104'
p218
aS'517'
p219
aa(lp220
S'837\xe5\xbf\xab'
p221
aS'518'
p222
aa(lp223
S'\xe4\xb8\x93166'
p224
aS'272'
p225
aa(lp226
S'916\xe5\xbf\xab'
p227
aS'551'
p228
aa(lp229
S'941\xe5\xbf\xab'
p230
aS'561'
p231
aa(lp232
S'919\xe5\xbf\xab'
p233
aS'586'
p234
aa(lp235
S'805\xe5\xbf\xab'
p236
aS'632'
p237
aa(lp238
S'977\xe5\xbf\xab'
p239
aS'668'
p240
aa(lp241
S'917\xe5\xbf\xab'
p242
aS'686'
p243
aa(lp244
S'980\xe5\xbf\xab'
p245
aS'687'
p246
aa(lp247
S'\xe4\xb8\x93119'
p248
aS'712'
p249
aa(lp250
S'\xe4\xb8\x93118'
p251
aS'575'
p252
aa(lp253
S'\xe4\xb8\x93113'
p254
aS'717'
p255
aa(lp256
S'\xe4\xb8\x93112'
p257
aS'718'
p258
aa(lp259
S'\xe4\xb8\x93115'
p260
aS'719'
p261
aa(lp262
S'\xe4\xb8\x93117'
p263
aS'720'
p264
aa(lp265
S'\xe4\xb8\x93116'
p266
aS'721'
p267
aa(lp268
S'915\xe5\xbf\xab'
p269
aS'734'
p270
aa(lp271
S'\xe4\xb8\x93169'
p272
aS'744'
p273
aa(lp274
S'\xe4\xb8\x9349'
p275
aS'0'
aa(lp276
S'\xe4\xb8\x9344'
p277
aS'1'
aa(lp278
S'\xe4\xb8\x9345'
p279
aS'2'
aa(lp280
S'\xe4\xb8\x9341'
p281
aS'4'
aa(lp282
S'\xe5\xa4\x9c16'
p283
aS'500'
p284
aa(lp285
S'\xe5\xa4\x9c32'
p286
aS'86'
p287
aa(lp288
S'\xe5\xa4\x9c34'
p289
aS'88'
p290
aa(lp291
S'\xe7\x89\xb916'
p292
aS'206'
p293
aa(lp294
S'\xe7\x89\xb915'
p295
aS'207'
p296
aa(lp297
S'\xe7\x89\xb914'
p298
aS'208'
p299
aa(lp300
S'\xe7\x89\xb910'
p301
aS'211'
p302
aa(lp303
S'\xe7\x89\xb918'
p304
aS'219'
p305
aa(lp306
S'\xe5\xa4\x9c28'
p307
aS'282'
p308
aa(lp309
S'\xe4\xb8\x9338'
p310
aS'290'
p311
aa(lp312
S'\xe4\xb8\x9331'
p313
aS'291'
p314
aa(lp315
S'\xe4\xb8\x9330'
p316
aS'342'
p317
aa(lp318
S'\xe4\xb8\x9360'
p319
aS'413'
p320
aa(lp321
S'\xe4\xb8\x9369'
p322
aS'292'
p323
aa(lp324
S'\xe4\xb8\x9366'
p325
aS'661'
p326
aa(lp327
S'\xe4\xb8\x9391'
p328
aS'448'
p329
aa(lp330
S'\xe4\xb8\x9397'
p331
aS'449'
p332
aa(lp333
S'\xe4\xb8\x9396'
p334
aS'450'
p335
aa(lp336
S'\xe4\xb8\x9320'
p337
aS'519'
p338
aa(lp339
S'\xe4\xb8\x9321'
p340
aS'520'
p341
aa(lp342
S'\xe4\xb8\x9326'
p343
aS'521'
p344
aa(lp345
S'\xe4\xb8\x9327'
p346
aS'522'
p347
aa(lp348
S'\xe4\xb8\x9359'
p349
aS'545'
p350
aa(lp351
S'\xe4\xb8\x9355'
p352
aS'547'
p353
aa(lp354
S'\xe4\xb8\x9351'
p355
aS'548'
p356
aa(lp357
S'\xe4\xb8\x9353'
p358
aS'549'
p359
aa(lp360
S'\xe7\x89\xb917'
p361
aS'626'
p362
aa(lp363
S'\xe4\xb8\x9311'
p364
aS'29'
p365
aa(lp366
S'\xe4\xb8\x9310'
p367
aS'395'
p368
aa(lp369
S'\xe4\xb8\x9313'
p370
aS'642'
p371
aa(lp372
S'\xe7\x89\xb911'
p373
aS'643'
p374
aa(lp375
S'\xe4\xb8\x9317'
p376
aS'644'
p377
aa(lp378
S'\xe7\x89\xb913'
p379
aS'634'
p380
aa(lp381
S'\xe7\x89\xb919'
p382
aS'218'
p383
aa(lp384
S'\xe4\xb8\x9389'
p385
aS'675'
p386
aa(lp387
S'\xe4\xb8\x9381'
p388
aS'676'
p389
aa(lp390
S'\xe4\xb8\x9387'
p391
aS'677'
p392
aa(lp393
S'\xe5\xa4\x9c2'
p394
aS'484'
p395
aa(lp396
S'\xe5\xa4\x9c1'
p397
aS'485'
p398
aa(lp399
S'\xe5\xa4\x9c7'
p400
aS'487'
p401
aa(lp402
S'\xe5\xa4\x9c4'
p403
aS'91'
p404
aa(lp405
S'\xe7\x89\xb93'
p406
aS'523'
p407
aa(lp408
S'\xe7\x89\xb92'
p409
aS'524'
p410
aa(lp411
S'\xe7\x89\xb97'
p412
aS'526'
p413
aa(lp414
S'\xe7\x89\xb96'
p415
aS'527'
p416
aa(lp417
S'\xe7\x89\xb95'
p418
aS'528'
p419
aa(lp420
S'\xe7\x89\xb94'
p421
aS'529'
p422
aa(lp423
S'\xe4\xb8\x935'
p424
aS'745'
p425
aa(lp426
S'818'
p427
aS'6'
aa(lp428
S'346'
p429
aS'8'
aa(lp430
S'347'
p431
aS'9'
aa(lp432
S'341'
p433
aS'10'
p434
aa(lp435
S'342'
p436
aS'11'
p437
aa(lp438
S'343'
p439
aS'12'
p440
aa(lp441
S'811'
p442
aS'13'
p443
aa(lp444
S'813'
p445
aS'14'
p446
aa(lp447
S'348'
p448
aS'15'
p449
aa(lp450
S'349'
p451
aS'16'
p452
aa(lp453
S'816'
p454
aS'17'
p455
aa(lp456
S'717'
p457
aS'19'
p458
aa(lp459
S'714'
p460
aS'20'
p461
aa(lp462
S'915'
p463
aS'633'
p464
aa(lp465
S'423'
p466
aS'635'
p467
aa(lp468
S'425'
p469
aS'637'
p470
aa(lp471
S'913'
p472
aS'638'
p473
aa(lp474
S'426'
p475
aS'639'
p476
aa(lp477
S'591'
p478
aS'28'
p479
aa(lp480
S'308'
p481
aS'640'
p482
aa(lp483
S'593'
p484
aS'30'
p485
aa(lp486
S'595'
p487
aS'32'
p488
aa(lp489
S'594'
p490
aS'33'
p491
aa(lp492
S'597'
p493
aS'34'
p494
aa(lp495
S'596'
p496
aS'35'
p497
aa(lp498
S'599'
p499
aS'36'
p500
aa(lp501
S'598'
p502
aS'37'
p503
aa(lp504
S'525'
p505
aS'38'
p506
aa(lp507
S'526'
p508
aS'39'
p509
aa(lp510
S'527'
p511
aS'40'
p512
aa(lp513
S'520'
p514
aS'41'
p515
aa(lp516
S'521'
p517
aS'42'
p518
aa(lp519
S'523'
p520
aS'43'
p521
aa(lp522
S'528'
p523
aS'44'
p524
aa(lp525
S'529'
p526
aS'45'
p527
aa(lp528
S'449'
p529
aS'46'
p530
aa(lp531
S'443'
p532
aS'48'
p533
aa(lp534
S'442'
p535
aS'49'
p536
aa(lp537
S'441'
p538
aS'50'
p539
aa(lp540
S'440'
p541
aS'51'
p542
aa(lp543
S'445'
p544
aS'53'
p545
aa(lp546
S'108'
p547
aS'54'
p548
aa(lp549
S'109'
p550
aS'55'
p551
aa(lp552
S'102'
p553
aS'56'
p554
aa(lp555
S'103'
p556
aS'57'
p557
aa(lp558
S'101'
p559
aS'59'
p560
aa(lp561
S'106'
p562
aS'60'
p563
aa(lp564
S'107'
p565
aS'61'
p566
aa(lp567
S'104'
p568
aS'62'
p569
aa(lp570
S'105'
p571
aS'63'
p572
aa(lp573
S'901'
p574
aS'65'
p575
aa(lp576
S'906'
p577
aS'66'
p578
aa(lp579
S'907'
p580
aS'67'
p581
aa(lp582
S'904'
p583
aS'68'
p584
aa(lp585
S'905'
p586
aS'69'
p587
aa(lp588
S'909'
p589
aS'73'
p590
aa(lp591
S'641'
p592
aS'76'
p593
aa(lp594
S'640'
p595
aS'77'
p596
aa(lp597
S'643'
p598
aS'78'
p599
aa(lp600
S'642'
p601
aS'79'
p602
aa(lp603
S'647'
p604
aS'81'
p605
aa(lp606
S'646'
p607
aS'82'
p608
aa(lp609
S'436'
p610
aS'83'
p611
aa(lp612
S'648'
p613
aS'84'
p614
aa(lp615
S'434'
p616
aS'85'
p617
aa(lp618
S'432'
p619
aS'87'
p620
aa(lp621
S'430'
p622
aS'89'
p623
aa(lp624
S'431'
p625
aS'90'
p626
aa(lp627
S'339'
p628
aS'92'
p629
aa(lp630
S'338'
p631
aS'93'
p632
aa(lp633
S'335'
p634
aS'94'
p635
aa(lp636
S'334'
p637
aS'95'
p638
aa(lp639
S'337'
p640
aS'96'
p641
aa(lp642
S'336'
p643
aS'97'
p644
aa(lp645
S'331'
p646
aS'98'
p647
aa(lp648
S'330'
p649
aS'99'
p650
aa(lp651
S'332'
p652
aS'100'
p653
aa(lp654
S'844'
p655
aS'658'
p656
aa(lp657
S'854'
p658
aS'103'
p659
aa(lp660
S'855'
p661
aS'104'
p662
aa(lp663
S'857'
p664
aS'105'
p665
aa(lp666
S'850'
p667
aS'106'
p668
aa(lp669
S'851'
p670
aS'107'
p671
aa(lp672
S'852'
p673
aS'108'
p674
aa(lp675
S'345'
p676
aS'109'
p677
aa(lp678
S'316'
p679
aS'418'
p680
aa(lp681
S'741'
p682
aS'129'
p683
aa(lp684
S'559'
p685
aS'130'
p686
aa(lp687
S'558'
p688
aS'131'
p689
aa(lp690
S'554'
p691
aS'132'
p692
aa(lp693
S'557'
p694
aS'133'
p695
aa(lp696
S'556'
p697
aS'134'
p698
aa(lp699
S'551'
p700
aS'135'
p701
aa(lp702
S'550'
p703
aS'136'
p704
aa(lp705
S'553'
p706
aS'137'
p707
aa(lp708
S'552'
p709
aS'138'
p710
aa(lp711
S'848'
p712
aS'665'
p713
aa(lp714
S'992'
p715
aS'385'
p716
aa(lp717
S'618'
p718
aS'140'
p719
aa(lp720
S'619'
p721
aS'141'
p722
aa(lp723
S'612'
p724
aS'142'
p725
aa(lp726
S'610'
p727
aS'143'
p728
aa(lp729
S'611'
p730
aS'144'
p731
aa(lp732
S'616'
p733
aS'145'
p734
aa(lp735
S'614'
p736
aS'146'
p737
aa(lp738
S'615'
p739
aS'147'
p740
aa(lp741
S'951'
p742
aS'704'
p743
aa(lp744
S'948'
p745
aS'151'
p746
aa(lp747
S'946'
p748
aS'152'
p749
aa(lp750
S'944'
p751
aS'153'
p752
aa(lp753
S'945'
p754
aS'154'
p755
aa(lp756
S'942'
p757
aS'155'
p758
aa(lp759
S'943'
p760
aS'156'
p761
aa(lp762
S'940'
p763
aS'157'
p764
aa(lp765
S'941'
p766
aS'158'
p767
aa(lp768
S'684'
p769
aS'160'
p770
aa(lp771
S'681'
p772
aS'161'
p773
aa(lp774
S'680'
p775
aS'162'
p776
aa(lp777
S'682'
p778
aS'163'
p779
aa(lp780
S'459'
p781
aS'164'
p782
aa(lp783
S'469'
p784
aS'697'
p785
aa(lp786
S'133'
p787
aS'165'
p788
aa(lp789
S'132'
p790
aS'166'
p791
aa(lp792
S'131'
p793
aS'167'
p794
aa(lp795
S'130'
p796
aS'188'
p797
aa(lp798
S'498'
p799
aS'169'
p800
aa(lp801
S'499'
p802
aS'170'
p803
aa(lp804
S'494'
p805
aS'171'
p806
aa(lp807
S'496'
p808
aS'172'
p809
aa(lp810
S'497'
p811
aS'173'
p812
aa(lp813
S'490'
p814
aS'174'
p815
aa(lp816
S'493'
p817
aS'175'
p818
aa(lp819
S'407'
p820
aS'189'
p821
aa(lp822
S'939'
p823
aS'190'
p824
aa(lp825
S'404'
p826
aS'191'
p827
aa(lp828
S'403'
p829
aS'192'
p830
aa(lp831
S'402'
p832
aS'193'
p833
aa(lp834
S'401'
p835
aS'194'
p836
aa(lp837
S'933'
p838
aS'195'
p839
aa(lp840
S'931'
p841
aS'196'
p842
aa(lp843
S'930'
p844
aS'197'
p845
aa(lp846
S'937'
p847
aS'198'
p848
aa(lp849
S'936'
p850
aS'199'
p851
aa(lp852
S'935'
p853
aS'200'
p854
aa(lp855
S'408'
p856
aS'201'
p857
aa(lp858
S'379'
p859
aS'205'
p860
aa(lp861
S'829'
p862
aS'209'
p863
aa(lp864
S'371'
p865
aS'212'
p866
aa(lp867
S'824'
p868
aS'213'
p869
aa(lp870
S'827'
p871
aS'214'
p872
aa(lp873
S'826'
p874
aS'47'
p875
aa(lp876
S'821'
p877
aS'216'
p878
aa(lp879
S'820'
p880
aS'187'
p881
aa(lp882
S'823'
p883
aS'101'
p884
aa(lp885
S'701'
p886
aS'220'
p887
aa(lp888
S'393'
p889
aS'221'
p890
aa(lp891
S'392'
p892
aS'222'
p893
aa(lp894
S'397'
p895
aS'224'
p896
aa(lp897
S'396'
p898
aS'225'
p899
aa(lp900
S'414'
p901
aS'399'
p902
aa(lp903
S'415'
p904
aS'400'
p905
aa(lp906
S'586'
p907
aS'236'
p908
aa(lp909
S'587'
p910
aS'237'
p911
aa(lp912
S'584'
p913
aS'238'
p914
aa(lp915
S'585'
p916
aS'239'
p917
aa(lp918
S'582'
p919
aS'240'
p920
aa(lp921
S'583'
p922
aS'241'
p923
aa(lp924
S'580'
p925
aS'242'
p926
aa(lp927
S'581'
p928
aS'243'
p929
aa(lp930
S'589'
p931
aS'244'
p932
aa(lp933
S'924'
p934
aS'407'
p935
aa(lp936
S'419'
p937
aS'408'
p938
aa(lp939
S'519'
p940
aS'247'
p941
aa(lp942
S'518'
p943
aS'248'
p944
aa(lp945
S'511'
p946
aS'249'
p947
aa(lp948
S'510'
p949
aS'250'
p950
aa(lp951
S'513'
p952
aS'251'
p953
aa(lp954
S'512'
p955
aS'252'
p956
aa(lp957
S'515'
p958
aS'253'
p959
aa(lp960
S'517'
p961
aS'254'
p962
aa(lp963
S'516'
p964
aS'255'
p965
aa(lp966
S'623'
p967
aS'256'
p968
aa(lp969
S'622'
p970
aS'257'
p971
aa(lp972
S'621'
p973
aS'258'
p974
aa(lp975
S'627'
p976
aS'260'
p977
aa(lp978
S'626'
p979
aS'261'
p980
aa(lp981
S'625'
p982
aS'262'
p983
aa(lp984
S'624'
p985
aS'263'
p986
aa(lp987
S'450'
p988
aS'264'
p989
aa(lp990
S'452'
p991
aS'265'
p992
aa(lp993
S'453'
p994
aS'266'
p995
aa(lp996
S'454'
p997
aS'267'
p998
aa(lp999
S'455'
p1000
aS'268'
p1001
aa(lp1002
S'456'
p1003
aS'269'
p1004
aa(lp1005
S'457'
p1006
aS'270'
p1007
aa(lp1008
S'592'
p1009
aS'271'
p1010
aa(lp1011
S'977'
p1012
aS'273'
p1013
aa(lp1014
S'976'
p1015
aS'274'
p1016
aa(lp1017
S'975'
p1018
aS'275'
p1019
aa(lp1020
S'973'
p1021
aS'276'
p1022
aa(lp1023
S'972'
p1024
aS'277'
p1025
aa(lp1026
S'971'
p1027
aS'278'
p1028
aa(lp1029
S'970'
p1030
aS'279'
p1031
aa(lp1032
S'978'
p1033
aS'280'
p1034
aa(lp1035
S'657'
p1036
aS'281'
p1037
aa(lp1038
S'652'
p1039
aS'284'
p1040
aa(lp1041
S'653'
p1042
aS'285'
p1043
aa(lp1044
S'650'
p1045
aS'286'
p1046
aa(lp1047
S'651'
p1048
aS'287'
p1049
aa(lp1050
S'658'
p1051
aS'288'
p1052
aa(lp1053
S'659'
p1054
aS'289'
p1055
aa(lp1056
S'865'
p1057
aS'303'
p1058
aa(lp1059
S'864'
p1060
aS'304'
p1061
aa(lp1062
S'867'
p1063
aS'305'
p1064
aa(lp1065
S'866'
p1066
aS'306'
p1067
aa(lp1068
S'883'
p1069
aS'308'
p1070
aa(lp1071
S'887'
p1072
aS'310'
p1073
aa(lp1074
S'886'
p1075
aS'311'
p1076
aa(lp1077
S'885'
p1078
aS'312'
p1079
aa(lp1080
S'884'
p1081
aS'313'
p1082
aa(lp1083
S'355'
p1084
aS'555'
p1085
aa(lp1086
S'322'
p1087
aS'324'
p1088
aa(lp1089
S'323'
p1090
aS'325'
p1091
aa(lp1092
S'321'
p1093
aS'326'
p1094
aa(lp1095
S'326'
p1096
aS'327'
p1097
aa(lp1098
S'327'
p1099
aS'328'
p1100
aa(lp1101
S'324'
p1102
aS'329'
p1103
aa(lp1104
S'325'
p1105
aS'330'
p1106
aa(lp1107
S'328'
p1108
aS'331'
p1109
aa(lp1110
S'329'
p1111
aS'332'
p1112
aa(lp1113
S'805'
p1114
aS'565'
p1115
aa(lp1116
S'804'
p1117
aS'566'
p1118
aa(lp1119
S'669'
p1120
aS'351'
p1121
aa(lp1122
S'668'
p1123
aS'352'
p1124
aa(lp1125
S'667'
p1126
aS'353'
p1127
aa(lp1128
S'666'
p1129
aS'354'
p1130
aa(lp1131
S'665'
p1132
aS'355'
p1133
aa(lp1134
S'664'
p1135
aS'356'
p1136
aa(lp1137
S'663'
p1138
aS'357'
p1139
aa(lp1140
S'662'
p1141
aS'358'
p1142
aa(lp1143
S'661'
p1144
aS'359'
p1145
aa(lp1146
S'660'
p1147
aS'360'
p1148
aa(lp1149
S'692'
p1150
aS'361'
p1151
aa(lp1152
S'693'
p1153
aS'362'
p1154
aa(lp1155
S'690'
p1156
aS'363'
p1157
aa(lp1158
S'691'
p1159
aS'364'
p1160
aa(lp1161
S'696'
p1162
aS'365'
p1163
aa(lp1164
S'697'
p1165
aS'366'
p1166
aa(lp1167
S'694'
p1168
aS'367'
p1169
aa(lp1170
S'695'
p1171
aS'368'
p1172
aa(lp1173
S'698'
p1174
aS'369'
p1175
aa(lp1176
S'699'
p1177
aS'370'
p1178
aa(lp1179
S'542'
p1180
aS'371'
p1181
aa(lp1182
S'543'
p1183
aS'372'
p1184
aa(lp1185
S'541'
p1186
aS'373'
p1187
aa(lp1188
S'546'
p1189
aS'374'
p1190
aa(lp1191
S'547'
p1192
aS'375'
p1193
aa(lp1194
S'544'
p1195
aS'376'
p1196
aa(lp1197
S'549'
p1198
aS'378'
p1199
aa(lp1200
S'994'
p1201
aS'379'
p1202
aa(lp1203
S'997'
p1204
aS'380'
p1205
aa(lp1206
S'996'
p1207
aS'381'
p1208
aa(lp1209
S'991'
p1210
aS'382'
p1211
aa(lp1212
S'990'
p1213
aS'383'
p1214
aa(lp1215
S'993'
p1216
aS'384'
p1217
aa(lp1218
S'868'
p1219
aS'350'
p1220
aa(lp1221
S'998'
p1222
aS'386'
p1223
aa(lp1224
S'120'
p1225
aS'387'
p1226
aa(lp1227
S'121'
p1228
aS'388'
p1229
aa(lp1230
S'122'
p1231
aS'389'
p1232
aa(lp1233
S'123'
p1234
aS'390'
p1235
aa(lp1236
S'124'
p1237
aS'391'
p1238
aa(lp1239
S'125'
p1240
aS'392'
p1241
aa(lp1242
S'126'
p1243
aS'393'
p1244
aa(lp1245
S'127'
p1246
aS'394'
p1247
aa(lp1248
S'928'
p1249
aS'233'
p1250
aa(lp1251
S'929'
p1252
aS'234'
p1253
aa(lp1254
S'416'
p1255
aS'401'
p1256
aa(lp1257
S'417'
p1258
aS'402'
p1259
aa(lp1260
S'410'
p1261
aS'403'
p1262
aa(lp1263
S'411'
p1264
aS'404'
p1265
aa(lp1266
S'413'
p1267
aS'405'
p1268
aa(lp1269
S'923'
p1270
aS'406'
p1271
aa(lp1272
S'418'
p1273
aS'245'
p1274
aa(lp1275
S'925'
p1276
aS'246'
p1277
aa(lp1278
S'926'
p1279
aS'409'
p1280
aa(lp1281
S'927'
p1282
aS'410'
p1283
aa(lp1284
S'319'
p1285
aS'411'
p1286
aa(lp1287
S'318'
p1288
aS'412'
p1289
aa(lp1290
S'312'
p1291
aS'414'
p1292
aa(lp1293
S'311'
p1294
aS'415'
p1295
aa(lp1296
S'310'
p1297
aS'416'
p1298
aa(lp1299
S'317'
p1300
aS'417'
p1301
aa(lp1302
S'315'
p1303
aS'419'
p1304
aa(lp1305
S'314'
p1306
aS'420'
p1307
aa(lp1308
S'832'
p1309
aS'421'
p1310
aa(lp1311
S'833'
p1312
aS'422'
p1313
aa(lp1314
S'830'
p1315
aS'423'
p1316
aa(lp1317
S'831'
p1318
aS'424'
p1319
aa(lp1320
S'836'
p1321
aS'425'
p1322
aa(lp1323
S'837'
p1324
aS'426'
p1325
aa(lp1326
S'834'
p1327
aS'427'
p1328
aa(lp1329
S'835'
p1330
aS'428'
p1331
aa(lp1332
S'838'
p1333
aS'429'
p1334
aa(lp1335
S'839'
p1336
aS'430'
p1337
aa(lp1338
S'369'
p1339
aS'433'
p1340
aa(lp1341
S'366'
p1342
aS'434'
p1343
aa(lp1344
S'364'
p1345
aS'435'
p1346
aa(lp1347
S'365'
p1348
aS'396'
p1349
aa(lp1350
S'362'
p1351
aS'437'
p1352
aa(lp1353
S'363'
p1354
aS'398'
p1355
aa(lp1356
S'360'
p1357
aS'439'
p1358
aa(lp1359
S'361'
p1360
aS'440'
p1361
aa(lp1362
S'952'
p1363
aS'707'
p1364
aa(lp1365
S'380'
p1366
aS'441'
p1367
aa(lp1368
S'381'
p1369
aS'442'
p1370
aa(lp1371
S'384'
p1372
aS'443'
p1373
aa(lp1374
S'385'
p1375
aS'444'
p1376
aa(lp1377
S'386'
p1378
aS'445'
p1379
aa(lp1380
S'387'
p1381
aS'446'
p1382
aa(lp1383
S'389'
p1384
aS'447'
p1385
aa(lp1386
S'579'
p1387
aS'452'
p1388
aa(lp1389
S'578'
p1390
aS'453'
p1391
aa(lp1392
S'573'
p1393
aS'455'
p1394
aa(lp1395
S'571'
p1396
aS'456'
p1397
aa(lp1398
S'570'
p1399
aS'457'
p1400
aa(lp1401
S'577'
p1402
aS'458'
p1403
aa(lp1404
S'576'
p1405
aS'459'
p1406
aa(lp1407
S'575'
p1408
aS'460'
p1409
aa(lp1410
S'574'
p1411
aS'461'
p1412
aa(lp1413
S'685'
p1414
aS'471'
p1415
aa(lp1416
S'938'
p1417
aS'473'
p1418
aa(lp1419
S'508'
p1420
aS'474'
p1421
aa(lp1422
S'736'
p1423
aS'475'
p1424
aa(lp1425
S'506'
p1426
aS'476'
p1427
aa(lp1428
S'507'
p1429
aS'477'
p1430
aa(lp1431
S'504'
p1432
aS'478'
p1433
aa(lp1434
S'505'
p1435
aS'479'
p1436
aa(lp1437
S'502'
p1438
aS'480'
p1439
aa(lp1440
S'503'
p1441
aS'481'
p1442
aa(lp1443
S'501'
p1444
aS'482'
p1445
aa(lp1446
S'630'
p1447
aS'483'
p1448
aa(lp1449
S'633'
p1450
aS'486'
p1451
aa(lp1452
S'635'
p1453
aS'488'
p1454
aa(lp1455
S'636'
p1456
aS'489'
p1457
aa(lp1458
S'465'
p1459
aS'491'
p1460
aa(lp1461
S'464'
p1462
aS'492'
p1463
aa(lp1464
S'467'
p1465
aS'493'
p1466
aa(lp1467
S'466'
p1468
aS'494'
p1469
aa(lp1470
S'462'
p1471
aS'496'
p1472
aa(lp1473
S'309'
p1474
aS'641'
p1475
aa(lp1476
S'964'
p1477
aS'499'
p1478
aa(lp1479
S'965'
p1480
aS'18'
p1481
aa(lp1482
S'966'
p1483
aS'501'
p1484
aa(lp1485
S'967'
p1486
aS'502'
p1487
aa(lp1488
S'960'
p1489
aS'503'
p1490
aa(lp1491
S'961'
p1492
aS'24'
p1493
aa(lp1494
S'962'
p1495
aS'505'
p1496
aa(lp1497
S'963'
p1498
aS'506'
p1499
aa(lp1500
S'968'
p1501
aS'508'
p1502
aa(lp1503
S'969'
p1504
aS'509'
p1505
aa(lp1506
S'409'
p1507
aS'513'
p1508
aa(lp1509
S'878'
p1510
aS'531'
p1511
aa(lp1512
S'876'
p1513
aS'532'
p1514
aa(lp1515
S'877'
p1516
aS'533'
p1517
aa(lp1518
S'872'
p1519
aS'534'
p1520
aa(lp1521
S'873'
p1522
aS'535'
p1523
aa(lp1524
S'870'
p1525
aS'536'
p1526
aa(lp1527
S'890'
p1528
aS'538'
p1529
aa(lp1530
S'637'
p1531
aS'539'
p1532
aa(lp1533
S'896'
p1534
aS'541'
p1535
aa(lp1536
S'897'
p1537
aS'542'
p1538
aa(lp1539
S'439'
p1540
aS'544'
p1541
aa(lp1542
S'437'
p1543
aS'546'
p1544
aa(lp1545
S'638'
p1546
aS'713'
p1547
aa(lp1548
S'435'
p1549
aS'550'
p1550
aa(lp1551
S'433'
p1552
aS'552'
p1553
aa(lp1554
S'357'
p1555
aS'553'
p1556
aa(lp1557
S'356'
p1558
aS'554'
p1559
aa(lp1560
S'809'
p1561
aS'323'
p1562
aa(lp1563
S'808'
p1564
aS'556'
p1565
aa(lp1566
S'353'
p1567
aS'557'
p1568
aa(lp1569
S'352'
p1570
aS'558'
p1571
aa(lp1572
S'351'
p1573
aS'559'
p1574
aa(lp1575
S'350'
p1576
aS'560'
p1577
aa(lp1578
S'568'
p1579
aS'678'
p1580
aa(lp1581
S'801'
p1582
aS'562'
p1583
aa(lp1584
S'807'
p1585
aS'563'
p1586
aa(lp1587
S'806'
p1588
aS'564'
p1589
aa(lp1590
S'359'
p1591
aS'345'
p1592
aa(lp1593
S'358'
p1594
aS'348'
p1595
aa(lp1596
S'438'
p1597
aS'574'
p1598
aa(lp1599
S'678'
p1600
aS'576'
p1601
aa(lp1602
S'679'
p1603
aS'577'
p1604
aa(lp1605
S'674'
p1606
aS'578'
p1607
aa(lp1608
S'675'
p1609
aS'579'
p1610
aa(lp1611
S'676'
p1612
aS'580'
p1613
aa(lp1614
S'677'
p1615
aS'581'
p1616
aa(lp1617
S'670'
p1618
aS'582'
p1619
aa(lp1620
S'671'
p1621
aS'583'
p1622
aa(lp1623
S'672'
p1624
aS'584'
p1625
aa(lp1626
S'673'
p1627
aS'585'
p1628
aa(lp1629
S'537'
p1630
aS'597'
p1631
aa(lp1632
S'536'
p1633
aS'598'
p1634
aa(lp1635
S'535'
p1636
aS'599'
p1637
aa(lp1638
S'534'
p1639
aS'600'
p1640
aa(lp1641
S'532'
p1642
aS'601'
p1643
aa(lp1644
S'531'
p1645
aS'602'
p1646
aa(lp1647
S'530'
p1648
aS'603'
p1649
aa(lp1650
S'539'
p1651
aS'604'
p1652
aa(lp1653
S'538'
p1654
aS'605'
p1655
aa(lp1656
S'988'
p1657
aS'606'
p1658
aa(lp1659
S'989'
p1660
aS'607'
p1661
aa(lp1662
S'982'
p1663
aS'608'
p1664
aa(lp1665
S'983'
p1666
aS'609'
p1667
aa(lp1668
S'980'
p1669
aS'610'
p1670
aa(lp1671
S'981'
p1672
aS'611'
p1673
aa(lp1674
S'986'
p1675
aS'612'
p1676
aa(lp1677
S'987'
p1678
aS'613'
p1679
aa(lp1680
S'984'
p1681
aS'614'
p1682
aa(lp1683
S'985'
p1684
aS'615'
p1685
aa(lp1686
S'115'
p1687
aS'616'
p1688
aa(lp1689
S'114'
p1690
aS'617'
p1691
aa(lp1692
S'117'
p1693
aS'618'
p1694
aa(lp1695
S'116'
p1696
aS'619'
p1697
aa(lp1698
S'111'
p1699
aS'620'
p1700
aa(lp1701
S'110'
p1702
aS'621'
p1703
aa(lp1704
S'113'
p1705
aS'622'
p1706
aa(lp1707
S'112'
p1708
aS'623'
p1709
aa(lp1710
S'119'
p1711
aS'624'
p1712
aa(lp1713
S'118'
p1714
aS'625'
p1715
aa(lp1716
S'378'
p1717
aS'627'
p1718
aa(lp1719
S'428'
p1720
aS'629'
p1721
aa(lp1722
S'919'
p1723
aS'630'
p1724
aa(lp1725
S'918'
p1726
aS'631'
p1727
aa(lp1728
S'421'
p1729
aS'21'
p1730
aa(lp1731
S'914'
p1732
aS'22'
p1733
aa(lp1734
S'917'
p1735
aS'23'
p1736
aa(lp1737
S'916'
p1738
aS'636'
p1739
aa(lp1740
S'911'
p1741
aS'25'
p1742
aa(lp1743
S'427'
p1744
aS'26'
p1745
aa(lp1746
S'912'
p1747
aS'27'
p1748
aa(lp1749
S'301'
p1750
aS'645'
p1751
aa(lp1752
S'302'
p1753
aS'646'
p1754
aa(lp1755
S'303'
p1756
aS'647'
p1757
aa(lp1758
S'304'
p1759
aS'648'
p1760
aa(lp1761
S'305'
p1762
aS'649'
p1763
aa(lp1764
S'306'
p1765
aS'650'
p1766
aa(lp1767
S'307'
p1768
aS'651'
p1769
aa(lp1770
S'825'
p1771
aS'652'
p1772
aa(lp1773
S'370'
p1774
aS'653'
p1775
aa(lp1776
S'373'
p1777
aS'654'
p1778
aa(lp1779
S'847'
p1780
aS'655'
p1781
aa(lp1782
S'846'
p1783
aS'656'
p1784
aa(lp1785
S'845'
p1786
aS'657'
p1787
aa(lp1788
S'372'
p1789
aS'215'
p1790
aa(lp1791
S'843'
p1792
aS'659'
p1793
aa(lp1794
S'842'
p1795
aS'660'
p1796
aa(lp1797
S'841'
p1798
aS'127'
p1799
aa(lp1800
S'840'
p1801
aS'662'
p1802
aa(lp1803
S'375'
p1804
aS'663'
p1805
aa(lp1806
S'849'
p1807
aS'664'
p1808
aa(lp1809
S'374'
p1810
aS'217'
p1811
aa(lp1812
S'376'
p1813
aS'667'
p1814
aa(lp1815
S'472'
p1816
aS'736'
p1817
aa(lp1818
S'482'
p1819
aS'730'
p1820
aa(lp1821
S'753'
p1822
aS'309'
p1823
aa(lp1824
S'569'
p1825
aS'679'
p1826
aa(lp1827
S'751'
p1828
aS'680'
p1829
aa(lp1830
S'560'
p1831
aS'681'
p1832
aa(lp1833
S'561'
p1834
aS'682'
p1835
aa(lp1836
S'562'
p1837
aS'683'
p1838
aa(lp1839
S'563'
p1840
aS'333'
p1841
aa(lp1842
S'565'
p1843
aS'685'
p1844
aa(lp1845
S'390'
p1846
aS'688'
p1847
aa(lp1848
S'605'
p1849
aS'690'
p1850
aa(lp1851
S'607'
p1852
aS'691'
p1853
aa(lp1854
S'606'
p1855
aS'692'
p1856
aa(lp1857
S'603'
p1858
aS'693'
p1859
aa(lp1860
S'602'
p1861
aS'694'
p1862
aa(lp1863
S'609'
p1864
aS'695'
p1865
aa(lp1866
S'632'
p1867
aS'696'
p1868
aa(lp1869
S'634'
p1870
aS'507'
p1871
aa(lp1872
S'468'
p1873
aS'698'
p1874
aa(lp1875
S'959'
p1876
aS'699'
p1877
aa(lp1878
S'958'
p1879
aS'700'
p1880
aa(lp1881
S'398'
p1882
aS'701'
p1883
aa(lp1884
S'953'
p1885
aS'706'
p1886
aa(lp1887
S'955'
p1888
aS'568'
p1889
aa(lp1890
S'957'
p1891
aS'570'
p1892
aa(lp1893
S'956'
p1894
aS'572'
p1895
aa(lp1896
S'802'
p1897
aS'714'
p1898
aa(lp1899
S'639'
p1900
aS'716'
p1901
aa(lp1902
S'620'
p1903
aS'259'
p1904
aa(lp1905
S'463'
p1906
aS'722'
p1907
aa(lp1908
S'489'
p1909
aS'723'
p1910
aa(lp1911
S'488'
p1912
aS'724'
p1913
aa(lp1914
S'487'
p1915
aS'725'
p1916
aa(lp1917
S'486'
p1918
aS'726'
p1919
aa(lp1920
S'485'
p1921
aS'727'
p1922
aa(lp1923
S'484'
p1924
aS'728'
p1925
aa(lp1926
S'483'
p1927
aS'729'
p1928
aa(lp1929
S'377'
p1930
aS'666'
p1931
aa(lp1932
S'481'
p1933
aS'731'
p1934
aa(lp1935
S'480'
p1936
aS'732'
p1937
aa(lp1938
S'509'
p1939
aS'684'
p1940
aa(lp1941
S'473'
p1942
aS'737'
p1943
aa(lp1944
S'471'
p1945
aS'738'
p1946
aa(lp1947
S'476'
p1948
aS'739'
p1949
aa(lp1950
S'477'
p1951
aS'740'
p1952
aa(lp1953
S'474'
p1954
aS'741'
p1955
aa(lp1956
S'475'
p1957
aS'742'
p1958
aa(lp1959
S'478'
p1960
aS'743'
p1961
aa(lp1962
S'39'
p1963
aS'64'
p1964
aa(lp1965
S'33'
p1966
aS'70'
p1967
aa(lp1968
S'32'
p1969
aS'71'
p1970
aa(lp1971
S'31'
p1972
aS'72'
p1973
aa(lp1974
S'35'
p1975
aS'74'
p1976
aa(lp1977
S'34'
p1978
aS'75'
p1979
aa(lp1980
S'99'
p1981
aS'112'
p1982
aa(lp1983
S'98'
p1984
aS'113'
p1985
aa(lp1986
S'91'
p1987
aS'120'
p1988
aa(lp1989
S'93'
p1990
aS'121'
p1991
aa(lp1992
S'92'
p1993
aS'122'
p1994
aa(lp1995
S'95'
p1996
aS'123'
p1997
aa(lp1998
S'94'
p1999
aS'124'
p2000
aa(lp2001
S'97'
p2002
aS'125'
p2003
aa(lp2004
S'96'
p2005
aS'126'
p2006
aa(lp2007
S'24'
p2008
aS'176'
p2009
aa(lp2010
S'25'
p2011
aS'177'
p2012
aa(lp2013
S'26'
p2014
aS'178'
p2015
aa(lp2016
S'27'
p2017
aS'179'
p2018
aa(lp2019
S'20'
p2020
aS'180'
p2021
aa(lp2022
S'21'
p2023
aS'181'
p2024
aa(lp2025
S'22'
p2026
aS'182'
p2027
aa(lp2028
S'23'
p2029
aS'183'
p2030
aa(lp2031
S'28'
p2032
aS'185'
p2033
aa(lp2034
S'29'
p2035
aS'186'
p2036
aa(lp2037
S'89'
p2038
aS'223'
p2039
aa(lp2040
S'82'
p2041
aS'226'
p2042
aa(lp2043
S'83'
p2044
aS'227'
p2045
aa(lp2046
S'80'
p2047
aS'228'
p2048
aa(lp2049
S'81'
p2050
aS'229'
p2051
aa(lp2052
S'86'
p2053
aS'230'
p2054
aa(lp2055
S'87'
p2056
aS'231'
p2057
aa(lp2058
S'85'
p2059
aS'232'
p2060
aa(lp2061
S'11'
p2062
aS'294'
p2063
aa(lp2064
S'10'
p2065
aS'295'
p2066
aa(lp2067
S'13'
p2068
aS'296'
p2069
aa(lp2070
S'15'
p2071
aS'297'
p2072
aa(lp2073
S'14'
p2074
aS'298'
p2075
aa(lp2076
S'17'
p2077
aS'299'
p2078
aa(lp2079
S'16'
p2080
aS'300'
p2081
aa(lp2082
S'19'
p2083
aS'301'
p2084
aa(lp2085
S'18'
p2086
aS'302'
p2087
aa(lp2088
S'77'
p2089
aS'334'
p2090
aa(lp2091
S'76'
p2092
aS'335'
p2093
aa(lp2094
S'75'
p2095
aS'336'
p2096
aa(lp2097
S'74'
p2098
aS'337'
p2099
aa(lp2100
S'73'
p2101
aS'338'
p2102
aa(lp2103
S'72'
p2104
aS'339'
p2105
aa(lp2106
S'71'
p2107
aS'340'
p2108
aa(lp2109
S'70'
p2110
aS'341'
p2111
aa(lp2112
S'79'
p2113
aS'343'
p2114
aa(lp2115
S'78'
p2116
aS'344'
p2117
aa(lp2118
S'60'
p2119
aS'462'
p2120
aa(lp2121
S'61'
p2122
aS'463'
p2123
aa(lp2124
S'63'
p2125
aS'464'
p2126
aa(lp2127
S'64'
p2128
aS'465'
p2129
aa(lp2130
S'65'
p2131
aS'466'
p2132
aa(lp2133
S'66'
p2134
aS'467'
p2135
aa(lp2136
S'67'
p2137
aS'468'
p2138
aa(lp2139
S'68'
p2140
aS'469'
p2141
aa(lp2142
S'69'
p2143
aS'470'
p2144
aa(lp2145
S'38'
p2146
aS'497'
p2147
aa(lp2148
S'45'
p2149
aS'567'
p2150
aa(lp2151
S'42'
p2152
aS'708'
p2153
aa(lp2154
S'40'
p2155
aS'710'
p2156
aa(lp2157
S'41'
p2158
aS'711'
p2159
aa(lp2160
S'30'
p2161
aS'587'
p2162
aa(lp2163
S'59'
p2164
aS'588'
p2165
aa(lp2166
S'58'
p2167
aS'589'
p2168
aa(lp2169
S'55'
p2170
aS'590'
p2171
aa(lp2172
S'54'
p2173
aS'591'
p2174
aa(lp2175
S'57'
p2176
aS'592'
p2177
aa(lp2178
S'56'
p2179
aS'593'
p2180
aa(lp2181
S'50'
p2182
aS'594'
p2183
aa(lp2184
S'53'
p2185
aS'595'
p2186
aa(lp2187
S'52'
p2188
aS'596'
p2189
aa(lp2190
S'48'
p2191
aS'702'
p2192
aa(lp2193
S'49'
p2194
aS'703'
p2195
aa(lp2196
S'46'
p2197
aS'148'
p2198
aa(lp2199
S'47'
p2200
aS'705'
p2201
aa(lp2202
S'43'
p2203
aS'709'
p2204
aa(lp2205
S'0'
aS'7'
aa(lp2206
S'6'
aS'110'
p2207
aa(lp2208
S'1'
aS'139'
p2209
aa(lp2210
S'7'
aS'235'
p2211
aa(lp2212
S'2'
aS'283'
p2213
aa(lp2214
S'8'
aS'377'
p2215
aa(lp2216
S'3'
aS'432'
p2217
aa(lp2218
S'9'
aS'537'
p2219
aa(lp2220
S'5'
aS'715'
p2221
aatRp2222
.